Certificate:
    Data:
        Version: 3 (0x2)
        Serial Number: 4096 (0x1000)
        Signature Algorithm: sha256WithRSAEncryption
        Issuer: C=GB, ST=Essex, L=Essex, O=enarx-test, OU=enarx-test, CN=enarx-test/emailAddress=none@here.out
        Validity
            Not Before: Aug  1 16:19:55 2020 GMT
            Not After : Aug  1 16:19:55 2021 GMT
        Subject: C=GB, ST=Essex, O=enarx-test, OU=enarx-test, CN=enarx-test/emailAddress=none@there.out
        Subject Public Key Info:
            Public Key Algorithm: rsaEncryption
                RSA Public-Key: (2048 bit)
                Modulus:
                    00:d9:ad:61:ba:31:a8:df:d1:1a:c2:67:81:70:56:
                    c0:f1:7e:58:29:e1:dc:63:50:7a:3f:dc:cc:a6:4a:
                    d7:42:15:f6:3d:b0:01:6c:39:e1:ba:43:11:1f:d6:
                    51:6b:c1:bc:58:f5:88:4f:27:32:a4:20:66:9c:ef:
                    14:9b:b1:2f:ad:ce:f8:e5:08:37:66:f9:46:15:2c:
                    75:79:55:00:2c:22:d5:fa:60:04:e0:a4:6e:97:d3:
                    fd:6e:ca:9e:3f:cb:f6:8c:ad:19:39:9f:4c:60:dd:
                    14:cd:a8:dd:e9:f1:a0:5b:78:53:5a:71:9b:77:87:
                    ce:f0:88:dd:60:2e:77:0b:93:88:c9:cc:a0:7b:f3:
                    da:04:6b:d3:e1:a6:e1:42:85:c6:c7:8e:7f:da:e8:
                    f3:90:dd:d1:d0:7f:0c:e0:54:eb:1a:03:98:6b:25:
                    2e:f1:59:ea:44:33:b4:9f:c3:23:dd:bc:33:84:05:
                    b0:de:2c:4c:9a:84:2b:5f:c9:29:ae:3a:a5:e4:20:
                    96:ef:7c:ce:6d:5e:43:cb:c2:9f:f3:4a:af:b5:5d:
                    e8:c1:07:48:c5:30:d2:e6:26:5d:49:fa:8a:ef:bb:
                    08:75:da:bf:b2:9e:f1:1b:fc:5a:33:7b:9c:de:25:
                    9c:56:91:63:2a:c0:94:16:ee:23:39:09:68:56:92:
                    1b:b9
                Exponent: 65537 (0x10001)
        X509v3 extensions:
            X509v3 Basic Constraints: 
                CA:FALSE
            Netscape Comment: 
                OpenSSL Generated Certificate
            X509v3 Subject Key Identifier: 
                9C:13:8F:B9:1D:18:70:9D:32:D7:7C:22:4E:11:61:1F:B7:F2:9E:6E
            X509v3 Authority Key Identifier: 
                keyid:F8:D1:01:1C:A7:DF:D0:03:99:5C:CA:61:23:77:D9:33:CB:57:80:29

    Signature Algorithm: sha256WithRSAEncryption
         47:da:a4:e7:c8:2b:26:04:85:5f:f3:40:d5:83:86:14:39:61:
         00:19:56:f7:4d:c3:f1:bb:3e:bc:f8:7c:69:81:39:48:13:83:
         99:fc:18:2f:4f:ad:bb:15:68:67:f5:d6:87:62:cb:f7:0e:63:
         59:9d:a9:ec:31:1b:4d:cb:32:24:a4:7d:b5:40:11:9e:e9:97:
         bf:56:a2:ec:fa:88:53:d5:ab:51:fb:b8:73:54:de:a8:d7:8d:
         f3:7e:7e:29:a5:d0:74:fd:0b:42:7a:81:55:7d:49:40:22:59:
         3d:68:71:ad:fb:a9:6f:e0:b6:7a:f2:c6:4f:9b:b6:7c:87:d0:
         fe:39:aa:24:c4:b4:12:f2:01:49:93:c4:18:b6:67:00:c9:7b:
         e5:67:22:c4:d5:b4:33:ff:54:f1:ff:ba:8e:7e:fe:ea:13:30:
         56:f9:bc:11:9b:ca:c0:87:aa:98:21:55:47:0f:13:1c:d2:91:
         be:b9:a5:ee:fc:8f:de:82:80:f6:ee:3d:eb:49:c2:42:62:90:
         7b:e6:52:09:e1:dd:62:62:ef:2e:19:10:85:5e:8b:3c:54:45:
         5b:e5:58:53:37:c6:15:bd:87:1a:65:c6:7a:39:38:ca:66:b4:
         e1:d8:6a:3e:78:c8:10:2b:7e:30:3f:4e:e0:a0:99:d7:be:88:
         a1:09:38:92
-----BEGIN CERTIFICATE-----
MIID/TCCAuWgAwIBAgICEAAwDQYJKoZIhvcNAQELBQAwgYoxCzAJBgNVBAYTAkdC
MQ4wDAYDVQQIDAVFc3NleDEOMAwGA1UEBwwFRXNzZXgxEzARBgNVBAoMCmVuYXJ4
LXRlc3QxEzARBgNVBAsMCmVuYXJ4LXRlc3QxEzARBgNVBAMMCmVuYXJ4LXRlc3Qx
HDAaBgkqhkiG9w0BCQEWDW5vbmVAaGVyZS5vdXQwHhcNMjAwODAxMTYxOTU1WhcN
MjEwODAxMTYxOTU1WjB7MQswCQYDVQQGEwJHQjEOMAwGA1UECAwFRXNzZXgxEzAR
BgNVBAoMCmVuYXJ4LXRlc3QxEzARBgNVBAsMCmVuYXJ4LXRlc3QxEzARBgNVBAMM
CmVuYXJ4LXRlc3QxHTAbBgkqhkiG9w0BCQEWDm5vbmVAdGhlcmUub3V0MIIBIjAN
BgkqhkiG9w0BAQEFAAOCAQ8AMIIBCgKCAQEA2a1hujGo39EawmeBcFbA8X5YKeHc
Y1B6P9zMpkrXQhX2PbABbDnhukMRH9ZRa8G8WPWITycypCBmnO8Um7Evrc745Qg3
ZvlGFSx1eVUALCLV+mAE4KRul9P9bsqeP8v2jK0ZOZ9MYN0Uzajd6fGgW3hTWnGb
d4fO8IjdYC53C5OIycyge/PaBGvT4abhQoXGx45/2ujzkN3R0H8M4FTrGgOYayUu
8VnqRDO0n8Mj3bwzhAWw3ixMmoQrX8kprjql5CCW73zObV5Dy8Kf80qvtV3owQdI
xTDS5iZdSfqK77sIddq/sp7xG/xaM3uc3iWcVpFjKsCUFu4jOQloVpIbuQIDAQAB
o3sweTAJBgNVHRMEAjAAMCwGCWCGSAGG+EIBDQQfFh1PcGVuU1NMIEdlbmVyYXRl
ZCBDZXJ0aWZpY2F0ZTAdBgNVHQ4EFgQUnBOPuR0YcJ0y13wiThFhH7fynm4wHwYD
VR0jBBgwFoAU+NEBHKff0AOZXMphI3fZM8tXgCkwDQYJKoZIhvcNAQELBQADggEB
AEfapOfIKyYEhV/zQNWDhhQ5YQAZVvdNw/G7Prz4fGmBOUgTg5n8GC9PrbsVaGf1
1odiy/cOY1mdqewxG03LMiSkfbVAEZ7pl79Wouz6iFPVq1H7uHNU3qjXjfN+fiml
0HT9C0J6gVV9SUAiWT1oca37qW/gtnryxk+btnyH0P45qiTEtBLyAUmTxBi2ZwDJ
e+VnIsTVtDP/VPH/uo5+/uoTMFb5vBGbysCHqpghVUcPExzSkb65pe78j96CgPbu
PetJwkJikHvmUgnh3WJi7y4ZEIVeizxURVvlWFM3xhW9hxplxno5OMpmtOHYaj54
yBArfjA/TuCgmde+iKEJOJI=
-----END CERTIFICATE-----
